; Function Attrs: null_pointer_is_valid sspstrong uwtable
define internal fastcc void @alert_notification(ptr noundef %0, ptr noundef %1, ptr noundef %2) unnamed_addr #0 {
  %4 = alloca i32, align 4
  %5 = load i32, ptr @hf_smpp_source_addr_ton, align 4
  %6 = tail call ptr @proto_tree_add_item(ptr noundef %0, i32 noundef %5, ptr noundef %1, i32 noundef 16, i32 noundef 1, i32 noundef 0)
  store i32 17, ptr %4, align 4
  %7 = load i32, ptr @hf_smpp_source_addr_npi, align 4
  %8 = tail call ptr @proto_tree_add_item(ptr noundef %0, i32 noundef %7, ptr noundef %1, i32 noundef 17, i32 noundef 1, i32 noundef 0)
  %9 = load i32, ptr @hf_smpp_source_addr, align 4
  %10 = tail call i32 @tvb_strsize(ptr noundef %1, i32 noundef 18)
  %11 = icmp ugt i32 %10, 1
  br i1 %11, label %12, label %smpp_handle_string.exit

12:                                               ; preds = %3
  %13 = tail call ptr @proto_tree_add_item(ptr noundef %0, i32 noundef %9, ptr noundef %1, i32 noundef 18, i32 noundef %10, i32 noundef 0)
  br label %smpp_handle_string.exit

smpp_handle_string.exit:                          ; preds = %3, %12
  %14 = add i32 %10, 18
  %15 = load i32, ptr @hf_smpp_esme_addr_ton, align 4
  %16 = tail call ptr @proto_tree_add_item(ptr noundef %0, i32 noundef %15, ptr noundef %1, i32 noundef %14, i32 noundef 1, i32 noundef 0)
  %17 = add i32 %10, 19
  %18 = load i32, ptr @hf_smpp_esme_addr_npi, align 4
  %19 = tail call ptr @proto_tree_add_item(ptr noundef %0, i32 noundef %18, ptr noundef %1, i32 noundef %17, i32 noundef 1, i32 noundef 0)
  %20 = add i32 %10, 20
  %21 = load i32, ptr @hf_smpp_esme_addr, align 4
  %22 = tail call i32 @tvb_strsize(ptr noundef %1, i32 noundef %20)
  %23 = icmp ugt i32 %22, 1
  br i1 %23, label %24, label %smpp_handle_string.exit15

24:                                               ; preds = %smpp_handle_string.exit
  %25 = tail call ptr @proto_tree_add_item(ptr noundef %0, i32 noundef %21, ptr noundef %1, i32 noundef %20, i32 noundef %22, i32 noundef 0)
  br label %smpp_handle_string.exit15

smpp_handle_string.exit15:                        ; preds = %smpp_handle_string.exit, %24
  %26 = add i32 %20, %22
  store i32 %26, ptr %4, align 4
  call fastcc void @smpp_handle_tlv(ptr noundef %0, ptr noundef %1, ptr noundef %2, ptr noundef nonnull %4, ptr noundef null)
  ret void
}